; Function Attrs: mustprogress uwtable
define void @_ZN3gmx23NoseHooverChainsElement12scheduleTaskEldRKSt8functionIFvS1_IFvvEEEE(ptr noundef nonnull align 8 dereferenceable(120) %0, i64 noundef %1, double %2, ptr noundef nonnull align 8 dereferenceable(32) %3) unnamed_addr #1 align 2 personality ptr @__gxx_personality_v0 {
  %5 = alloca i64, align 8
  %6 = alloca %"class.std::function.485", align 8
  %7 = getelementptr inbounds nuw i8, ptr %0, i64 88
  %8 = load i64, ptr %7, align 8, !tbaa !55
  %9 = icmp eq i64 %1, %8
  %10 = getelementptr inbounds nuw i8, ptr %0, i64 80
  %11 = load i32, ptr %10, align 8
  %12 = icmp eq i32 %11, 1
  %or.cond = select i1 %9, i1 %12, i1 false
  br i1 %or.cond, label %_Z11do_per_stepll.exit.thread, label %13

13:                                               ; preds = %4
  %14 = getelementptr inbounds nuw i8, ptr %0, i64 56
  %15 = load i32, ptr %14, align 8, !tbaa !69
  %.not.i = icmp eq i32 %15, 0
  br i1 %.not.i, label %_Z11do_per_stepll.exit.thread, label %_Z11do_per_stepll.exit

_Z11do_per_stepll.exit:                           ; preds = %13
  %16 = sext i32 %15 to i64
  %17 = add nsw i64 %1, %16
  %18 = getelementptr inbounds nuw i8, ptr %0, i64 60
  %19 = load i32, ptr %18, align 4, !tbaa !70
  %20 = sext i32 %19 to i64
  %21 = add nsw i64 %17, %20
  %22 = srem i64 %21, %16
  %23 = icmp eq i64 %22, 0
  br i1 %23, label %24, label %_Z11do_per_stepll.exit.thread

24:                                               ; preds = %_Z11do_per_stepll.exit
  %25 = ptrtoint ptr %0 to i64
  %26 = getelementptr inbounds nuw i8, ptr %6, i64 16
  %27 = getelementptr inbounds nuw i8, ptr %6, i64 24
  %28 = getelementptr inbounds nuw i8, ptr %6, i64 8
  store i64 0, ptr %28, align 8
  store i64 %25, ptr %6, align 8, !tbaa !71
  store ptr @"_ZNSt17_Function_handlerIFvvEZN3gmx23NoseHooverChainsElement12scheduleTaskEldRKSt8functionIFvS3_IS0_EEEE3$_0E9_M_invokeERKSt9_Any_data", ptr %27, align 8, !tbaa !73
  store ptr @"_ZNSt17_Function_handlerIFvvEZN3gmx23NoseHooverChainsElement12scheduleTaskEldRKSt8functionIFvS3_IS0_EEEE3$_0E10_M_managerERSt9_Any_dataRKSB_St18_Manager_operation", ptr %26, align 8, !tbaa !75
  %29 = getelementptr inbounds nuw i8, ptr %3, i64 16
  %30 = load ptr, ptr %29, align 8, !tbaa !75
  %.not.i.i = icmp eq ptr %30, null
  br i1 %.not.i.i, label %31, label %32

31:                                               ; preds = %24
  invoke void @_ZSt25__throw_bad_function_callv() #32
          to label %.noexc unwind label %46

.noexc:                                           ; preds = %31
  unreachable

32:                                               ; preds = %24
  %33 = getelementptr inbounds nuw i8, ptr %3, i64 24
  %34 = load ptr, ptr %33, align 8, !tbaa !76
  invoke void %34(ptr noundef nonnull align 8 dereferenceable(32) %3, ptr noundef nonnull align 8 dereferenceable(32) %6)
          to label %_ZNKSt8functionIFvS_IFvvEEEEclES1_.exit unwind label %46

_ZNKSt8functionIFvS_IFvvEEEEclES1_.exit:          ; preds = %32
  %35 = load ptr, ptr %26, align 8, !tbaa !75
  %.not.i9 = icmp eq ptr %35, null
  br i1 %.not.i9, label %_ZNSt14_Function_baseD2Ev.exit, label %36

36:                                               ; preds = %_ZNKSt8functionIFvS_IFvvEEEEclES1_.exit
  %37 = invoke noundef zeroext i1 %35(ptr noundef nonnull align 8 dereferenceable(32) %6, ptr noundef nonnull align 8 dereferenceable(32) %6, i32 noundef 3)
          to label %_ZNSt14_Function_baseD2Ev.exit unwind label %38

38:                                               ; preds = %36
  %39 = landingpad { ptr, i32 }
          catch ptr null
  %40 = extractvalue { ptr, i32 } %39, 0
  call void @__clang_call_terminate(ptr %40) #33
  unreachable

_ZNSt14_Function_baseD2Ev.exit:                   ; preds = %_ZNKSt8functionIFvS_IFvvEEEEclES1_.exit, %36
  %41 = getelementptr inbounds nuw i8, ptr %0, i64 40
  %42 = load ptr, ptr %41, align 8, !tbaa !75
  %.not.i.i10.not = icmp eq ptr %42, null
  br i1 %.not.i.i10.not, label %_Z11do_per_stepll.exit.thread, label %_ZNKSt8functionIFvlEEclEl.exit

_ZNKSt8functionIFvlEEclEl.exit:                   ; preds = %_ZNSt14_Function_baseD2Ev.exit
  %43 = getelementptr inbounds nuw i8, ptr %0, i64 24
  call void @llvm.lifetime.start.p0(i64 8, ptr nonnull %5)
  store i64 %1, ptr %5, align 8, !tbaa !78
  %44 = getelementptr inbounds nuw i8, ptr %0, i64 48
  %45 = load ptr, ptr %44, align 8, !tbaa !79
  call void %45(ptr noundef nonnull align 8 dereferenceable(32) %43, ptr noundef nonnull align 8 dereferenceable(8) %5)
  call void @llvm.lifetime.end.p0(i64 8, ptr nonnull %5)
  br label %_Z11do_per_stepll.exit.thread

46:                                               ; preds = %32, %31
  %47 = landingpad { ptr, i32 }
          cleanup
  %48 = load ptr, ptr %26, align 8, !tbaa !75
  %.not.i12 = icmp eq ptr %48, null
  br i1 %.not.i12, label %_ZNSt14_Function_baseD2Ev.exit13, label %49

49:                                               ; preds = %46
  %50 = invoke noundef zeroext i1 %48(ptr noundef nonnull align 8 dereferenceable(32) %6, ptr noundef nonnull align 8 dereferenceable(32) %6, i32 noundef 3)
          to label %_ZNSt14_Function_baseD2Ev.exit13 unwind label %51

51:                                               ; preds = %49
  %52 = landingpad { ptr, i32 }
          catch ptr null
  %53 = extractvalue { ptr, i32 } %52, 0
  call void @__clang_call_terminate(ptr %53) #33
  unreachable

_ZNSt14_Function_baseD2Ev.exit13:                 ; preds = %46, %49
  resume { ptr, i32 } %47

_Z11do_per_stepll.exit.thread:                    ; preds = %13, %4, %_ZNSt14_Function_baseD2Ev.exit, %_ZNKSt8functionIFvlEEclEl.exit, %_Z11do_per_stepll.exit
  ret void
}